target datalayout = "e-m:e-p270:32:32-p271:32:32-p272:64:64-i64:64-i128:128-f80:128-n8:16:32:64-S128"
target triple = "x86_64-pc-linux-gnu"

; Function Attrs: mustprogress uwtable
define hidden noundef zeroext i1 @_ZN3sls7bv_eval15try_repair_lshrERKNS_5bvectERNS_12bv_valuationES5_j(ptr noundef nonnull align 8 dereferenceable(865) %0, ptr noundef nonnull align 8 dereferenceable(20) %1, ptr noundef nonnull align 8 dereferenceable(184) %2, ptr noundef nonnull align 8 dereferenceable(184) %3, i32 noundef %4) #4 align 2 {
  %6 = alloca i1, align 1
  %7 = alloca ptr, align 8
  %8 = alloca ptr, align 8
  %9 = alloca ptr, align 8
  %10 = alloca ptr, align 8
  %11 = alloca i32, align 4
  store ptr %0, ptr %7, align 8, !tbaa !3
  store ptr %1, ptr %8, align 8, !tbaa !110
  store ptr %2, ptr %9, align 8, !tbaa !122
  store ptr %3, ptr %10, align 8, !tbaa !122
  store i32 %4, ptr %11, align 4, !tbaa !97
  %12 = load ptr, ptr %7, align 8
  %13 = load i32, ptr %11, align 4, !tbaa !97
  %14 = icmp eq i32 %13, 0
  br i1 %14, label %15, label %20

15:                                               ; preds = %5
  %16 = load ptr, ptr %8, align 8, !tbaa !110
  %17 = load ptr, ptr %9, align 8, !tbaa !122
  %18 = load ptr, ptr %10, align 8, !tbaa !122
  %19 = call noundef zeroext i1 @_ZN3sls7bv_eval16try_repair_lshr0ERKNS_5bvectERNS_12bv_valuationERKS4_(ptr noundef nonnull align 8 dereferenceable(865) %12, ptr noundef nonnull align 8 dereferenceable(20) %16, ptr noundef nonnull align 8 dereferenceable(184) %17, ptr noundef nonnull align 8 dereferenceable(184) %18)
  store i1 %19, ptr %6, align 1
  br label %25

20:                                               ; preds = %5
  %21 = load ptr, ptr %8, align 8, !tbaa !110
  %22 = load ptr, ptr %9, align 8, !tbaa !122
  %23 = load ptr, ptr %10, align 8, !tbaa !122
  %24 = call noundef zeroext i1 @_ZN3sls7bv_eval16try_repair_lshr1ERKNS_5bvectERKNS_12bv_valuationERS4_(ptr noundef nonnull align 8 dereferenceable(865) %12, ptr noundef nonnull align 8 dereferenceable(20) %21, ptr noundef nonnull align 8 dereferenceable(184) %22, ptr noundef nonnull align 8 dereferenceable(184) %23)
  store i1 %24, ptr %6, align 1
  br label %25

25:                                               ; preds = %20, %15
  %26 = load i1, ptr %6, align 1
  ret i1 %26
}