; Function Attrs: mustprogress uwtable
define hidden noundef zeroext i1 @_ZN3sls7bv_eval15try_repair_lshrERKNS_5bvectERNS_12bv_valuationES5_j(ptr noundef nonnull align 8 dereferenceable(865) %0, ptr noundef nonnull align 8 dereferenceable(20) %1, ptr noundef nonnull align 8 dereferenceable(184) %2, ptr noundef nonnull align 8 dereferenceable(184) %3, i32 noundef %4) local_unnamed_addr #3 align 2 {
  %6 = icmp eq i32 %4, 0
  br i1 %6, label %7, label %9

7:                                                ; preds = %5
  %8 = tail call noundef zeroext i1 @_ZN3sls7bv_eval16try_repair_lshr0ERKNS_5bvectERNS_12bv_valuationERKS4_(ptr noundef nonnull align 8 dereferenceable(865) %0, ptr noundef nonnull align 8 dereferenceable(20) %1, ptr noundef nonnull align 8 dereferenceable(184) %2, ptr noundef nonnull align 8 dereferenceable(184) %3)
  br label %11

9:                                                ; preds = %5
  %10 = tail call noundef zeroext i1 @_ZN3sls7bv_eval16try_repair_lshr1ERKNS_5bvectERKNS_12bv_valuationERS4_(ptr noundef nonnull align 8 dereferenceable(865) %0, ptr noundef nonnull align 8 dereferenceable(20) %1, ptr noundef nonnull align 8 dereferenceable(184) %2, ptr noundef nonnull align 8 dereferenceable(184) %3)
  br label %11

11:                                               ; preds = %9, %7
  %.0 = phi i1 [ %8, %7 ], [ %10, %9 ]
  ret i1 %.0
}